target datalayout = "e-m:e-p270:32:32-p271:32:32-p272:64:64-i64:64-i128:128-f80:128-n8:16:32:64-S128"
target triple = "x86_64-pc-linux-gnu"

@.str.2 = private unnamed_addr constant [15 x i8] c"dependencies.c\00", align 1
@.str.7 = private unnamed_addr constant [45 x i8] c"cache lookup failed for statistics object %u\00", align 1
@__func__.statext_dependencies_load = private unnamed_addr constant [26 x i8] c"statext_dependencies_load\00", align 1
@.str.8 = private unnamed_addr constant [73 x i8] c"requested statistics kind \22%c\22 is not yet built for statistics object %u\00", align 1

; Function Attrs: inlinehint nounwind uwtable
define internal ptr @DatumGetPointer(i64 noundef %0) #3 {
  %2 = alloca i64, align 8
  store i64 %0, ptr %2, align 8
  %3 = load i64, ptr %2, align 8
  %4 = inttoptr i64 %3 to ptr
  ret ptr %4
}

; Function Attrs: inlinehint nounwind uwtable
define internal i64 @BoolGetDatum(i1 noundef zeroext %0) #3 {
  %2 = alloca i8, align 1
  %3 = zext i1 %0 to i8
  store i8 %3, ptr %2, align 1
  %4 = load i8, ptr %2, align 1, !range !14, !noundef !15
  %5 = trunc i8 %4 to i1
  %6 = select i1 %5, i32 1, i32 0
  %7 = sext i32 %6 to i64
  ret i64 %7
}

; Function Attrs: inlinehint nounwind uwtable
define internal i64 @ObjectIdGetDatum(i32 noundef %0) #3 {
  %2 = alloca i32, align 4
  store i32 %0, ptr %2, align 4
  %3 = load i32, ptr %2, align 4
  %4 = zext i32 %3 to i64
  ret i64 %4
}

; Function Attrs: nounwind uwtable
define dso_local ptr @statext_dependencies_load(i32 noundef %0, i1 noundef zeroext %1) #0 {
  %3 = alloca i32, align 4
  %4 = alloca i8, align 1
  %5 = alloca ptr, align 8
  %6 = alloca i8, align 1
  %7 = alloca i64, align 8
  %8 = alloca ptr, align 8
  store i32 %0, ptr %3, align 4
  %9 = zext i1 %1 to i8
  store i8 %9, ptr %4, align 1
  call void @llvm.lifetime.start.p0(i64 8, ptr %5) #8
  call void @llvm.lifetime.start.p0(i64 1, ptr %6) #8
  call void @llvm.lifetime.start.p0(i64 8, ptr %7) #8
  call void @llvm.lifetime.start.p0(i64 8, ptr %8) #8
  %10 = load i32, ptr %3, align 4
  %11 = call i64 @ObjectIdGetDatum(i32 noundef %10)
  %12 = load i8, ptr %4, align 1, !range !14, !noundef !15
  %13 = trunc i8 %12 to i1
  %14 = call i64 @BoolGetDatum(i1 noundef zeroext %13)
  %15 = call ptr @SearchSysCache2(i32 noundef 62, i64 noundef %11, i64 noundef %14)
  store ptr %15, ptr %8, align 8
  %16 = load ptr, ptr %8, align 8
  %17 = icmp ne ptr %16, null
  br i1 %17, label %30, label %18

18:                                               ; preds = %2
  br label %19

19:                                               ; preds = %18
  br i1 true, label %20, label %22

20:                                               ; preds = %19
  %21 = call zeroext i1 @errstart_cold(i32 noundef 21, ptr noundef null) #9
  br i1 %21, label %24, label %27

22:                                               ; preds = %19
  %23 = call zeroext i1 @errstart(i32 noundef 21, ptr noundef null)
  br i1 %23, label %24, label %27

24:                                               ; preds = %22, %20
  %25 = load i32, ptr %3, align 4
  %26 = call i32 (ptr, ...) @errmsg_internal(ptr noundef @.str.7, i32 noundef %25)
  call void @errfinish(ptr noundef @.str.2, i32 noundef 630, ptr noundef @__func__.statext_dependencies_load)
  br label %27

27:                                               ; preds = %24, %22, %20
  unreachable

28:                                               ; No predecessors!
  br label %29

29:                                               ; preds = %28
  br label %30

30:                                               ; preds = %29, %2
  %31 = load ptr, ptr %8, align 8
  %32 = call i64 @SysCacheGetAttr(i32 noundef 62, ptr noundef %31, i16 noundef signext 4, ptr noundef %6)
  store i64 %32, ptr %7, align 8
  %33 = load i8, ptr %6, align 1, !range !14, !noundef !15
  %34 = trunc i8 %33 to i1
  br i1 %34, label %35, label %47

35:                                               ; preds = %30
  br label %36

36:                                               ; preds = %35
  br i1 true, label %37, label %39

37:                                               ; preds = %36
  %38 = call zeroext i1 @errstart_cold(i32 noundef 21, ptr noundef null) #9
  br i1 %38, label %41, label %44

39:                                               ; preds = %36
  %40 = call zeroext i1 @errstart(i32 noundef 21, ptr noundef null)
  br i1 %40, label %41, label %44

41:                                               ; preds = %39, %37
  %42 = load i32, ptr %3, align 4
  %43 = call i32 (ptr, ...) @errmsg_internal(ptr noundef @.str.8, i32 noundef 102, i32 noundef %42)
  call void @errfinish(ptr noundef @.str.2, i32 noundef 637, ptr noundef @__func__.statext_dependencies_load)
  br label %44

44:                                               ; preds = %41, %39, %37
  unreachable

45:                                               ; No predecessors!
  br label %46

46:                                               ; preds = %45
  br label %47

47:                                               ; preds = %46, %30
  %48 = load i64, ptr %7, align 8
  %49 = call ptr @DatumGetPointer(i64 noundef %48)
  %50 = call ptr @pg_detoast_datum_packed(ptr noundef %49)
  %51 = call ptr @statext_dependencies_deserialize(ptr noundef %50)
  store ptr %51, ptr %5, align 8
  %52 = load ptr, ptr %8, align 8
  call void @ReleaseSysCache(ptr noundef %52)
  %53 = load ptr, ptr %5, align 8
  call void @llvm.lifetime.end.p0(i64 8, ptr %8) #8
  call void @llvm.lifetime.end.p0(i64 8, ptr %7) #8
  call void @llvm.lifetime.end.p0(i64 1, ptr %6) #8
  call void @llvm.lifetime.end.p0(i64 8, ptr %5) #8
  ret ptr %53
}