; Function Attrs: nounwind uwtable
define dso_local ptr @statext_dependencies_load(i32 noundef %0, i1 noundef zeroext %1) local_unnamed_addr #0 {
  %3 = alloca i8, align 1
  call void @llvm.lifetime.start.p0(i64 1, ptr nonnull %3) #8
  %4 = zext i32 %0 to i64
  %5 = zext i1 %1 to i64
  %6 = tail call ptr @SearchSysCache2(i32 noundef 62, i64 noundef %4, i64 noundef %5) #8
  %.not = icmp eq ptr %6, null
  br i1 %.not, label %7, label %10

7:                                                ; preds = %2
  %8 = tail call zeroext i1 @errstart_cold(i32 noundef 21, ptr noundef null) #9
  tail call void @llvm.assume(i1 %8)
  %9 = tail call i32 (ptr, ...) @errmsg_internal(ptr noundef nonnull @.str.7, i32 noundef %0) #8
  tail call void @errfinish(ptr noundef nonnull @.str.2, i32 noundef 630, ptr noundef nonnull @__func__.statext_dependencies_load) #8
  unreachable

10:                                               ; preds = %2
  %11 = call i64 @SysCacheGetAttr(i32 noundef 62, ptr noundef nonnull %6, i16 noundef signext 4, ptr noundef nonnull %3) #8
  %12 = load i8, ptr %3, align 1, !range !14, !noundef !15
  %13 = trunc nuw i8 %12 to i1
  br i1 %13, label %14, label %17

14:                                               ; preds = %10
  %15 = call zeroext i1 @errstart_cold(i32 noundef 21, ptr noundef null) #9
  call void @llvm.assume(i1 %15)
  %16 = call i32 (ptr, ...) @errmsg_internal(ptr noundef nonnull @.str.8, i32 noundef 102, i32 noundef %0) #8
  call void @errfinish(ptr noundef nonnull @.str.2, i32 noundef 637, ptr noundef nonnull @__func__.statext_dependencies_load) #8
  unreachable

17:                                               ; preds = %10
  %18 = inttoptr i64 %11 to ptr
  %19 = call ptr @pg_detoast_datum_packed(ptr noundef %18) #8
  %20 = call ptr @statext_dependencies_deserialize(ptr noundef %19)
  call void @ReleaseSysCache(ptr noundef nonnull %6) #8
  call void @llvm.lifetime.end.p0(i64 1, ptr nonnull %3) #8
  ret ptr %20
}